; ModuleID = '36/134.c'
source_filename = "36/134.c"
target datalayout = "e-m:e-p270:32:32-p271:32:32-p272:64:64-i64:64-f80:128-n8:16:32:64-S128"
target triple = "x86_64-pc-linux-gnu"

@.str = private unnamed_addr constant [5 x i8] c"%s%s\00", align 1
@.str.1 = private unnamed_addr constant [3 x i8] c"NO\00", align 1
@.str.2 = private unnamed_addr constant [4 x i8] c"NO\0A\00", align 1
@.str.3 = private unnamed_addr constant [5 x i8] c"YES\0A\00", align 1

; Function Attrs: noinline nounwind uwtable
define dso_local void @main() #0 {
  %1 = alloca i32, align 4
  %2 = alloca i32, align 4
  %3 = alloca [130 x i32], align 16
  %4 = alloca [130 x i32], align 16
  %5 = alloca [300 x i8], align 16
  %6 = alloca [300 x i8], align 16
  %7 = bitcast [130 x i32]* %3 to i8*
  call void @llvm.memset.p0i8.i64(i8* align 16 %7, i8 0, i64 520, i1 false)
  %8 = bitcast [130 x i32]* %4 to i8*
  call void @llvm.memset.p0i8.i64(i8* align 16 %8, i8 0, i64 520, i1 false)
  %9 = getelementptr inbounds [300 x i8], [300 x i8]* %5, i64 0, i64 0
  %10 = getelementptr inbounds [300 x i8], [300 x i8]* %6, i64 0, i64 0
  %11 = call i32 (i8*, ...) @__isoc99_scanf(i8* getelementptr inbounds ([5 x i8], [5 x i8]* @.str, i64 0, i64 0), i8* %9, i8* %10)
  %12 = getelementptr inbounds [300 x i8], [300 x i8]* %5, i64 0, i64 0
  %13 = call i64 @strlen(i8* %12) #4
  %14 = getelementptr inbounds [300 x i8], [300 x i8]* %6, i64 0, i64 0
  %15 = call i64 @strlen(i8* %14) #4
  %16 = icmp ne i64 %13, %15
  br i1 %16, label %17, label %19

17:                                               ; preds = %0
  %18 = call i32 (i8*, ...) @printf(i8* getelementptr inbounds ([3 x i8], [3 x i8]* @.str.1, i64 0, i64 0))
  br label %73

19:                                               ; preds = %0
  store i32 0, i32* %1, align 4
  br label %20

20:                                               ; preds = %44, %19
  %21 = load i32, i32* %1, align 4
  %22 = sext i32 %21 to i64
  %23 = getelementptr inbounds [300 x i8], [300 x i8]* %5, i64 0, i64 0
  %24 = call i64 @strlen(i8* %23) #4
  %25 = sub i64 %24, 1
  %26 = icmp ule i64 %22, %25
  br i1 %26, label %27, label %47

27:                                               ; preds = %20
  %28 = load i32, i32* %1, align 4
  %29 = sext i32 %28 to i64
  %30 = getelementptr inbounds [300 x i8], [300 x i8]* %5, i64 0, i64 %29
  %31 = load i8, i8* %30, align 1
  %32 = sext i8 %31 to i64
  %33 = getelementptr inbounds [130 x i32], [130 x i32]* %3, i64 0, i64 %32
  %34 = load i32, i32* %33, align 4
  %35 = add nsw i32 %34, 1
  store i32 %35, i32* %33, align 4
  %36 = load i32, i32* %1, align 4
  %37 = sext i32 %36 to i64
  %38 = getelementptr inbounds [300 x i8], [300 x i8]* %6, i64 0, i64 %37
  %39 = load i8, i8* %38, align 1
  %40 = sext i8 %39 to i64
  %41 = getelementptr inbounds [130 x i32], [130 x i32]* %4, i64 0, i64 %40
  %42 = load i32, i32* %41, align 4
  %43 = add nsw i32 %42, 1
  store i32 %43, i32* %41, align 4
  br label %44

44:                                               ; preds = %27
  %45 = load i32, i32* %1, align 4
  %46 = add nsw i32 %45, 1
  store i32 %46, i32* %1, align 4
  br label %20

47:                                               ; preds = %20
  store i32 50, i32* %2, align 4
  br label %48

48:                                               ; preds = %64, %47
  %49 = load i32, i32* %2, align 4
  %50 = icmp sle i32 %49, 122
  br i1 %50, label %51, label %67

51:                                               ; preds = %48
  %52 = load i32, i32* %2, align 4
  %53 = sext i32 %52 to i64
  %54 = getelementptr inbounds [130 x i32], [130 x i32]* %3, i64 0, i64 %53
  %55 = load i32, i32* %54, align 4
  %56 = load i32, i32* %2, align 4
  %57 = sext i32 %56 to i64
  %58 = getelementptr inbounds [130 x i32], [130 x i32]* %4, i64 0, i64 %57
  %59 = load i32, i32* %58, align 4
  %60 = icmp ne i32 %55, %59
  br i1 %60, label %61, label %63

61:                                               ; preds = %51
  %62 = call i32 (i8*, ...) @printf(i8* getelementptr inbounds ([4 x i8], [4 x i8]* @.str.2, i64 0, i64 0))
  br label %67

63:                                               ; preds = %51
  br label %64

64:                                               ; preds = %63
  %65 = load i32, i32* %2, align 4
  %66 = add nsw i32 %65, 1
  store i32 %66, i32* %2, align 4
  br label %48

67:                                               ; preds = %61, %48
  %68 = load i32, i32* %2, align 4
  %69 = icmp eq i32 %68, 123
  br i1 %69, label %70, label %72

70:                                               ; preds = %67
  %71 = call i32 (i8*, ...) @printf(i8* getelementptr inbounds ([5 x i8], [5 x i8]* @.str.3, i64 0, i64 0))
  br label %72

72:                                               ; preds = %70, %67
  br label %73

73:                                               ; preds = %72, %17
  ret void
}

; Function Attrs: argmemonly nounwind willreturn
declare void @llvm.memset.p0i8.i64(i8* nocapture writeonly, i8, i64, i1 immarg) #1

declare dso_local i32 @__isoc99_scanf(i8*, ...) #2

; Function Attrs: nounwind readonly
declare dso_local i64 @strlen(i8*) #3

declare dso_local i32 @printf(i8*, ...) #2


!llvm.module.flags = !{!0}
!llvm.ident = !{!1}

!0 = !{i32 1, !"wchar_size", i32 4}
!1 = !{!"clang version 10.0.0-4ubuntu1 "}
